; ModuleID = 'bench/openssl/original/dsa_vrf.ll'
source_filename = "bench/openssl/original/dsa_vrf.ll"
target datalayout = "e-m:e-p270:32:32-p271:32:32-p272:64:64-i64:64-i128:128-f80:128-n8:16:32:64-S128"
target triple = "x86_64-pc-linux-gnu"

; Function Attrs: nounwind uwtable
define i32 @DSA_do_verify(ptr noundef %0, i32 noundef %1, ptr noundef %2, ptr noundef %3) local_unnamed_addr #0 {
  %5 = getelementptr inbounds nuw i8, ptr %3, i64 160
  %6 = load ptr, ptr %5, align 8, !tbaa !3
  %7 = getelementptr inbounds nuw i8, ptr %6, i64 24
  %8 = load ptr, ptr %7, align 8, !tbaa !20
  %9 = tail call i32 %8(ptr noundef %0, i32 noundef %1, ptr noundef %2, ptr noundef %3) #1
  ret i32 %9
}


!llvm.module.flags = !{!0, !1, !2}

!0 = !{i32 1, !"wchar_size", i32 4}
!1 = !{i32 8, !"PIC Level", i32 2}
!2 = !{i32 7, !"uwtable", i32 2}
!3 = !{!4, !18, i64 160}
!4 = !{!"dsa_st", !5, i64 0, !5, i64 4, !8, i64 8, !9, i64 104, !9, i64 112, !5, i64 120, !13, i64 128, !14, i64 136, !15, i64 144, !18, i64 160, !19, i64 168, !10, i64 176, !16, i64 184, !12, i64 192}
!5 = !{!"int", !6, i64 0}
!6 = !{!"omnipotent char", !7, i64 0}
!7 = !{!"Simple C/C++ TBAA"}
!8 = !{!"ffc_params_st", !9, i64 0, !9, i64 8, !9, i64 16, !9, i64 24, !11, i64 32, !12, i64 40, !5, i64 48, !5, i64 52, !5, i64 56, !5, i64 60, !5, i64 64, !11, i64 72, !11, i64 80, !5, i64 88}
!9 = !{!"p1 _ZTS9bignum_st", !10, i64 0}
!10 = !{!"any pointer", !6, i64 0}
!11 = !{!"p1 omnipotent char", !10, i64 0}
!12 = !{!"long", !6, i64 0}
!13 = !{!"p1 _ZTS14bn_mont_ctx_st", !10, i64 0}
!14 = !{!"", !6, i64 0}
!15 = !{!"crypto_ex_data_st", !16, i64 0, !17, i64 8}
!16 = !{!"p1 _ZTS15ossl_lib_ctx_st", !10, i64 0}
!17 = !{!"p1 _ZTS13stack_st_void", !10, i64 0}
!18 = !{!"p1 _ZTS10dsa_method", !10, i64 0}
!19 = !{!"p1 _ZTS9engine_st", !10, i64 0}
!20 = !{!21, !10, i64 24}
!21 = !{!"dsa_method", !11, i64 0, !10, i64 8, !10, i64 16, !10, i64 24, !10, i64 32, !10, i64 40, !10, i64 48, !10, i64 56, !5, i64 64, !10, i64 72, !10, i64 80, !10, i64 88}
